; Function Attrs: mustprogress nofree norecurse nosync nounwind willreturn memory(read, inaccessiblemem: none) uwtable
define { ptr, ptr } @_ZNK3gmx18nonbonded_verlet_t14getGridIndicesEv(ptr noundef nonnull readonly align 8 captures(none) dereferenceable(64) %0) local_unnamed_addr #0 align 2 {
  %2 = getelementptr inbounds nuw i8, ptr %0, i64 8
  %3 = load ptr, ptr %2, align 8, !tbaa !4
  %4 = getelementptr inbounds nuw i8, ptr %3, i64 64
  %5 = load ptr, ptr %4, align 8, !tbaa !113
  %6 = getelementptr inbounds nuw i8, ptr %3, i64 72
  %7 = load ptr, ptr %6, align 8, !tbaa !180
  %8 = ptrtoint ptr %7 to i64
  %9 = ptrtoint ptr %5 to i64
  %10 = sub i64 %8, %9
  %11 = getelementptr inbounds nuw i8, ptr %5, i64 %10
  %.fca.0.insert.i = insertvalue { ptr, ptr } poison, ptr %5, 0
  %.fca.1.insert.i = insertvalue { ptr, ptr } %.fca.0.insert.i, ptr %11, 1
  ret { ptr, ptr } %.fca.1.insert.i
}